; Function Attrs: mustprogress uwtable
define noundef ptr @_ZN6icu_7726SimpleDateFormatStaticSets13getIgnorablesE16UDateFormatField(i32 noundef %0) local_unnamed_addr #0 align 2 personality ptr @__gxx_personality_v0 {
  %2 = alloca i32, align 4
  call void @llvm.lifetime.start.p0(i64 4, ptr nonnull %2) #6
  store i32 0, ptr %2, align 4, !tbaa !15
  %3 = load atomic i32, ptr @_ZN6icu_7735gSimpleDateFormatStaticSetsInitOnceE acquire, align 4
  %.not11.i = icmp eq i32 %3, 2
  br i1 %.not11.i, label %15, label %4

4:                                                ; preds = %1
  %5 = tail call noundef signext i8 @_ZN6icu_7720umtx_initImplPreInitERNS_9UInitOnceE(ptr noundef nonnull align 4 dereferenceable(8) @_ZN6icu_7735gSimpleDateFormatStaticSetsInitOnceE)
  %.not12.i = icmp eq i8 %5, 0
  br i1 %.not12.i, label %15, label %6

6:                                                ; preds = %4
  tail call void @ucln_i18n_registerCleanup_77(i32 noundef 26, ptr noundef nonnull @_ZN6icu_77L16smpdtfmt_cleanupEv)
  %7 = tail call noundef ptr @_ZN6icu_777UMemorynwEm(i64 noundef 24) #6
  %8 = icmp eq ptr %7, null
  br i1 %8, label %11, label %9

9:                                                ; preds = %6
  invoke void @_ZN6icu_7726SimpleDateFormatStaticSetsC1ER10UErrorCode(ptr noundef nonnull align 8 dereferenceable(24) %7, ptr noundef nonnull align 4 dereferenceable(4) %2)
          to label %10 unwind label %12

10:                                               ; preds = %9
  store ptr %7, ptr @_ZN6icu_7711gStaticSetsE, align 8, !tbaa !17
  %.pre = load i32, ptr %2, align 4, !tbaa !15
  br label %_ZN6icu_77L17smpdtfmt_initSetsER10UErrorCode.exit

11:                                               ; preds = %6
  store ptr null, ptr @_ZN6icu_7711gStaticSetsE, align 8, !tbaa !17
  store i32 7, ptr %2, align 4, !tbaa !15
  br label %_ZN6icu_77L17smpdtfmt_initSetsER10UErrorCode.exit

12:                                               ; preds = %9
  %13 = landingpad { ptr, i32 }
          cleanup
  call void @_ZN6icu_777UMemorydlEPv(ptr noundef nonnull %7) #6
  resume { ptr, i32 } %13

_ZN6icu_77L17smpdtfmt_initSetsER10UErrorCode.exit: ; preds = %10, %11
  %14 = phi i32 [ %.pre, %10 ], [ 7, %11 ]
  store i32 %14, ptr getelementptr inbounds nuw (i8, ptr @_ZN6icu_7735gSimpleDateFormatStaticSetsInitOnceE, i64 4), align 4, !tbaa !19
  call void @_ZN6icu_7721umtx_initImplPostInitERNS_9UInitOnceE(ptr noundef nonnull align 4 dereferenceable(8) @_ZN6icu_7735gSimpleDateFormatStaticSetsInitOnceE)
  %.pr.old = load i32, ptr %2, align 4, !tbaa !15
  %.old = icmp slt i32 %.pr.old, 1
  br i1 %.old, label %19, label %_ZN6icu_7713umtx_initOnceERNS_9UInitOnceEPFvR10UErrorCodeES3_.exit.thread

15:                                               ; preds = %4, %1
  %16 = load i32, ptr getelementptr inbounds nuw (i8, ptr @_ZN6icu_7735gSimpleDateFormatStaticSetsInitOnceE, i64 4), align 4, !tbaa !19
  %17 = icmp slt i32 %16, 1
  %.pr = load i32, ptr %2, align 4
  %18 = icmp slt i32 %.pr, 1
  %or.cond = select i1 %17, i1 %18, i1 false
  br i1 %or.cond, label %19, label %_ZN6icu_7713umtx_initOnceERNS_9UInitOnceEPFvR10UErrorCodeES3_.exit.thread

19:                                               ; preds = %15, %_ZN6icu_77L17smpdtfmt_initSetsER10UErrorCode.exit
  switch i32 %0, label %27 [
    i32 1, label %20
    i32 2, label %20
    i32 3, label %20
    i32 25, label %20
    i32 26, label %20
    i32 4, label %23
    i32 5, label %23
    i32 6, label %23
    i32 7, label %23
    i32 15, label %23
    i32 16, label %23
  ]

20:                                               ; preds = %19, %19, %19, %19, %19
  %21 = load ptr, ptr @_ZN6icu_7711gStaticSetsE, align 8, !tbaa !17
  %22 = load ptr, ptr %21, align 8, !tbaa !9
  br label %_ZN6icu_7713umtx_initOnceERNS_9UInitOnceEPFvR10UErrorCodeES3_.exit.thread

23:                                               ; preds = %19, %19, %19, %19, %19, %19
  %24 = load ptr, ptr @_ZN6icu_7711gStaticSetsE, align 8, !tbaa !17
  %25 = getelementptr inbounds nuw i8, ptr %24, i64 8
  %26 = load ptr, ptr %25, align 8, !tbaa !13
  br label %_ZN6icu_7713umtx_initOnceERNS_9UInitOnceEPFvR10UErrorCodeES3_.exit.thread

27:                                               ; preds = %19
  %28 = load ptr, ptr @_ZN6icu_7711gStaticSetsE, align 8, !tbaa !17
  %29 = getelementptr inbounds nuw i8, ptr %28, i64 16
  %30 = load ptr, ptr %29, align 8, !tbaa !14
  br label %_ZN6icu_7713umtx_initOnceERNS_9UInitOnceEPFvR10UErrorCodeES3_.exit.thread

_ZN6icu_7713umtx_initOnceERNS_9UInitOnceEPFvR10UErrorCodeES3_.exit.thread: ; preds = %15, %_ZN6icu_77L17smpdtfmt_initSetsER10UErrorCode.exit, %27, %23, %20
  %.0 = phi ptr [ %30, %27 ], [ %26, %23 ], [ %22, %20 ], [ null, %_ZN6icu_77L17smpdtfmt_initSetsER10UErrorCode.exit ], [ null, %15 ]
  call void @llvm.lifetime.end.p0(i64 4, ptr nonnull %2) #6
  ret ptr %.0
}